; ModuleID = '56/276.c'
source_filename = "56/276.c"
target datalayout = "e-m:e-p270:32:32-p271:32:32-p272:64:64-i64:64-f80:128-n8:16:32:64-S128"
target triple = "x86_64-pc-linux-gnu"

@.str = private unnamed_addr constant [3 x i8] c"%d\00", align 1
@.str.1 = private unnamed_addr constant [2 x i8] c"\0A\00", align 1

; Function Attrs: noinline nounwind uwtable
define dso_local i32 @main() #0 {
  %1 = alloca i32, align 4
  %2 = alloca i32*, align 8
  %3 = alloca i32, align 4
  %4 = alloca i32, align 4
  store i32 0, i32* %1, align 4
  %5 = call noalias i8* @malloc(i64 16) #3
  %6 = bitcast i8* %5 to i32*
  store i32* %6, i32** %2, align 8
  store i32 0, i32* %4, align 4
  br label %7

7:                                                ; preds = %16, %0
  %8 = load i32, i32* %4, align 4
  %9 = icmp slt i32 %8, 4
  br i1 %9, label %10, label %19

10:                                               ; preds = %7
  %11 = load i32*, i32** %2, align 8
  %12 = load i32, i32* %4, align 4
  %13 = sext i32 %12 to i64
  %14 = getelementptr inbounds i32, i32* %11, i64 %13
  %15 = call i32 (i8*, ...) @__isoc99_scanf(i8* getelementptr inbounds ([3 x i8], [3 x i8]* @.str, i64 0, i64 0), i32* %14)
  br label %16

16:                                               ; preds = %10
  %17 = load i32, i32* %4, align 4
  %18 = add nsw i32 %17, 1
  store i32 %18, i32* %4, align 4
  br label %7

19:                                               ; preds = %7
  store i32 0, i32* %4, align 4
  br label %20

20:                                               ; preds = %40, %19
  %21 = load i32, i32* %4, align 4
  %22 = icmp slt i32 %21, 4
  br i1 %22, label %23, label %43

23:                                               ; preds = %20
  %24 = load i32*, i32** %2, align 8
  %25 = load i32, i32* %4, align 4
  %26 = sext i32 %25 to i64
  %27 = getelementptr inbounds i32, i32* %24, i64 %26
  %28 = load i32, i32* %27, align 4
  store i32 %28, i32* %3, align 4
  br label %29

29:                                               ; preds = %32, %23
  %30 = load i32, i32* %3, align 4
  %31 = icmp ne i32 %30, 0
  br i1 %31, label %32, label %38

32:                                               ; preds = %29
  %33 = load i32, i32* %3, align 4
  %34 = srem i32 %33, 10
  %35 = call i32 (i8*, ...) @printf(i8* getelementptr inbounds ([3 x i8], [3 x i8]* @.str, i64 0, i64 0), i32 %34)
  %36 = load i32, i32* %3, align 4
  %37 = sdiv i32 %36, 10
  store i32 %37, i32* %3, align 4
  br label %29

38:                                               ; preds = %29
  %39 = call i32 (i8*, ...) @printf(i8* getelementptr inbounds ([2 x i8], [2 x i8]* @.str.1, i64 0, i64 0))
  br label %40

40:                                               ; preds = %38
  %41 = load i32, i32* %4, align 4
  %42 = add nsw i32 %41, 1
  store i32 %42, i32* %4, align 4
  br label %20

43:                                               ; preds = %20
  ret i32 0
}

; Function Attrs: nounwind
declare dso_local noalias i8* @malloc(i64) #1

declare dso_local i32 @__isoc99_scanf(i8*, ...) #2

declare dso_local i32 @printf(i8*, ...) #2


!llvm.module.flags = !{!0}
!llvm.ident = !{!1}

!0 = !{i32 1, !"wchar_size", i32 4}
!1 = !{!"clang version 10.0.0-4ubuntu1 "}
