; ModuleID = 'source-C-CXX/55/276.c'
source_filename = "source-C-CXX/55/276.c"
target datalayout = "e-m:e-p270:32:32-p271:32:32-p272:64:64-i64:64-f80:128-n8:16:32:64-S128"
target triple = "x86_64-pc-linux-gnu"

@.str = private unnamed_addr constant [3 x i8] c"%d\00", align 1

; Function Attrs: nofree nounwind sspstrong uwtable
define dso_local i32 @main() local_unnamed_addr #0 {
  %1 = tail call noalias align 16 dereferenceable_or_null(16) i8* @malloc(i64 16) #4
  %2 = bitcast i8* %1 to i32*
  %3 = tail call i32 (i8*, ...) @__isoc99_scanf(i8* getelementptr inbounds ([3 x i8], [3 x i8]* @.str, i64 0, i64 0), i8* %1)
  %4 = getelementptr inbounds i32, i32* %2, i64 1
  %5 = tail call i32 (i8*, ...) @__isoc99_scanf(i8* getelementptr inbounds ([3 x i8], [3 x i8]* @.str, i64 0, i64 0), i32* nonnull %4)
  %6 = getelementptr inbounds i32, i32* %2, i64 2
  %7 = tail call i32 (i8*, ...) @__isoc99_scanf(i8* getelementptr inbounds ([3 x i8], [3 x i8]* @.str, i64 0, i64 0), i32* nonnull %6)
  %8 = getelementptr inbounds i32, i32* %2, i64 3
  %9 = tail call i32 (i8*, ...) @__isoc99_scanf(i8* getelementptr inbounds ([3 x i8], [3 x i8]* @.str, i64 0, i64 0), i32* nonnull %8)
  %10 = load i32, i32* %2, align 16, !tbaa !5
  %11 = icmp eq i32 %10, 0
  br i1 %11, label %19, label %12

12:                                               ; preds = %0, %12
  %13 = phi i32 [ %16, %12 ], [ %10, %0 ]
  %14 = srem i32 %13, 10
  %15 = tail call i32 (i8*, ...) @printf(i8* nonnull dereferenceable(1) getelementptr inbounds ([3 x i8], [3 x i8]* @.str, i64 0, i64 0), i32 %14)
  %16 = sdiv i32 %13, 10
  %17 = add i32 %13, 9
  %18 = icmp ult i32 %17, 19
  br i1 %18, label %19, label %12, !llvm.loop !9

19:                                               ; preds = %12, %0
  %20 = tail call i32 @putchar(i32 10)
  %21 = load i32, i32* %4, align 4, !tbaa !5
  %22 = icmp eq i32 %21, 0
  br i1 %22, label %30, label %23

23:                                               ; preds = %19, %23
  %24 = phi i32 [ %27, %23 ], [ %21, %19 ]
  %25 = srem i32 %24, 10
  %26 = tail call i32 (i8*, ...) @printf(i8* nonnull dereferenceable(1) getelementptr inbounds ([3 x i8], [3 x i8]* @.str, i64 0, i64 0), i32 %25)
  %27 = sdiv i32 %24, 10
  %28 = add i32 %24, 9
  %29 = icmp ult i32 %28, 19
  br i1 %29, label %30, label %23, !llvm.loop !9

30:                                               ; preds = %23, %19
  %31 = tail call i32 @putchar(i32 10)
  %32 = load i32, i32* %6, align 8, !tbaa !5
  %33 = icmp eq i32 %32, 0
  br i1 %33, label %41, label %34

34:                                               ; preds = %30, %34
  %35 = phi i32 [ %38, %34 ], [ %32, %30 ]
  %36 = srem i32 %35, 10
  %37 = tail call i32 (i8*, ...) @printf(i8* nonnull dereferenceable(1) getelementptr inbounds ([3 x i8], [3 x i8]* @.str, i64 0, i64 0), i32 %36)
  %38 = sdiv i32 %35, 10
  %39 = add i32 %35, 9
  %40 = icmp ult i32 %39, 19
  br i1 %40, label %41, label %34, !llvm.loop !9

41:                                               ; preds = %34, %30
  %42 = tail call i32 @putchar(i32 10)
  %43 = load i32, i32* %8, align 4, !tbaa !5
  %44 = icmp eq i32 %43, 0
  br i1 %44, label %52, label %45

45:                                               ; preds = %41, %45
  %46 = phi i32 [ %49, %45 ], [ %43, %41 ]
  %47 = srem i32 %46, 10
  %48 = tail call i32 (i8*, ...) @printf(i8* nonnull dereferenceable(1) getelementptr inbounds ([3 x i8], [3 x i8]* @.str, i64 0, i64 0), i32 %47)
  %49 = sdiv i32 %46, 10
  %50 = add i32 %46, 9
  %51 = icmp ult i32 %50, 19
  br i1 %51, label %52, label %45, !llvm.loop !9

52:                                               ; preds = %45, %41
  %53 = tail call i32 @putchar(i32 10)
  ret i32 0
}

; Function Attrs: inaccessiblememonly mustprogress nofree nounwind willreturn
declare noalias noundef align 16 i8* @malloc(i64 noundef) local_unnamed_addr #1

; Function Attrs: nofree nounwind
declare noundef i32 @__isoc99_scanf(i8* nocapture noundef readonly, ...) local_unnamed_addr #2

; Function Attrs: nofree nounwind
declare noundef i32 @printf(i8* nocapture noundef readonly, ...) local_unnamed_addr #2

; Function Attrs: nofree nounwind
declare noundef i32 @putchar(i32 noundef) local_unnamed_addr #3


!llvm.module.flags = !{!0, !1, !2, !3}
!llvm.ident = !{!4}

!0 = !{i32 1, !"wchar_size", i32 4}
!1 = !{i32 7, !"PIC Level", i32 2}
!2 = !{i32 7, !"PIE Level", i32 2}
!3 = !{i32 7, !"uwtable", i32 1}
!4 = !{!"clang version 13.0.0"}
!5 = !{!6, !6, i64 0}
!6 = !{!"int", !7, i64 0}
!7 = !{!"omnipotent char", !8, i64 0}
!8 = !{!"Simple C/C++ TBAA"}
!9 = distinct !{!9, !10}
!10 = !{!"llvm.loop.mustprogress"}
